target datalayout = "e-m:e-p270:32:32-p271:32:32-p272:64:64-i64:64-i128:128-f80:128-n8:16:32:64-S128"
target triple = "x86_64-pc-linux-gnu"

%struct.anon.0 = type { ptr, i64, i16 }
%struct.SASL = type { ptr, i32, ptr, i16, i16, i16, i8 }

@.str = private unnamed_addr constant [2 x i8] c"*\00", align 1

; Function Attrs: nounwind uwtable
define hidden zeroext i16 @Curl_sasl_decode_mech(ptr noundef %0, i64 noundef %1, ptr noundef %2) #0 {
  %4 = alloca i16, align 2
  %5 = alloca ptr, align 8
  %6 = alloca i64, align 8
  %7 = alloca ptr, align 8
  %8 = alloca i32, align 4
  %9 = alloca i8, align 1
  %10 = alloca i32, align 4
  store ptr %0, ptr %5, align 8, !tbaa !10
  store i64 %1, ptr %6, align 8, !tbaa !12
  store ptr %2, ptr %7, align 8, !tbaa !14
  call void @llvm.lifetime.start.p0(i64 4, ptr %8) #4
  call void @llvm.lifetime.start.p0(i64 1, ptr %9) #4
  store i32 0, ptr %8, align 4, !tbaa !16
  br label %11

11:                                               ; preds = %104, %3
  %12 = load i32, ptr %8, align 4, !tbaa !16
  %13 = zext i32 %12 to i64
  %14 = getelementptr inbounds nuw [12 x %struct.anon.0], ptr @mechtable, i64 0, i64 %13
  %15 = getelementptr inbounds nuw %struct.anon.0, ptr %14, i32 0, i32 0
  %16 = load ptr, ptr %15, align 8, !tbaa !18
  %17 = icmp ne ptr %16, null
  br i1 %17, label %18, label %107

18:                                               ; preds = %11
  %19 = load i64, ptr %6, align 8, !tbaa !12
  %20 = load i32, ptr %8, align 4, !tbaa !16
  %21 = zext i32 %20 to i64
  %22 = getelementptr inbounds nuw [12 x %struct.anon.0], ptr @mechtable, i64 0, i64 %21
  %23 = getelementptr inbounds nuw %struct.anon.0, ptr %22, i32 0, i32 1
  %24 = load i64, ptr %23, align 8, !tbaa !20
  %25 = icmp uge i64 %19, %24
  br i1 %25, label %26, label %103

26:                                               ; preds = %18
  %27 = load ptr, ptr %5, align 8, !tbaa !10
  %28 = load i32, ptr %8, align 4, !tbaa !16
  %29 = zext i32 %28 to i64
  %30 = getelementptr inbounds nuw [12 x %struct.anon.0], ptr @mechtable, i64 0, i64 %29
  %31 = getelementptr inbounds nuw %struct.anon.0, ptr %30, i32 0, i32 0
  %32 = load ptr, ptr %31, align 8, !tbaa !18
  %33 = load i32, ptr %8, align 4, !tbaa !16
  %34 = zext i32 %33 to i64
  %35 = getelementptr inbounds nuw [12 x %struct.anon.0], ptr @mechtable, i64 0, i64 %34
  %36 = getelementptr inbounds nuw %struct.anon.0, ptr %35, i32 0, i32 1
  %37 = load i64, ptr %36, align 8, !tbaa !20
  %38 = call i32 @memcmp(ptr noundef %27, ptr noundef %32, i64 noundef %37) #5
  %39 = icmp ne i32 %38, 0
  br i1 %39, label %103, label %40

40:                                               ; preds = %26
  %41 = load ptr, ptr %7, align 8, !tbaa !14
  %42 = icmp ne ptr %41, null
  br i1 %42, label %43, label %50

43:                                               ; preds = %40
  %44 = load i32, ptr %8, align 4, !tbaa !16
  %45 = zext i32 %44 to i64
  %46 = getelementptr inbounds nuw [12 x %struct.anon.0], ptr @mechtable, i64 0, i64 %45
  %47 = getelementptr inbounds nuw %struct.anon.0, ptr %46, i32 0, i32 1
  %48 = load i64, ptr %47, align 8, !tbaa !20
  %49 = load ptr, ptr %7, align 8, !tbaa !14
  store i64 %48, ptr %49, align 8, !tbaa !12
  br label %50

50:                                               ; preds = %43, %40
  %51 = load i64, ptr %6, align 8, !tbaa !12
  %52 = load i32, ptr %8, align 4, !tbaa !16
  %53 = zext i32 %52 to i64
  %54 = getelementptr inbounds nuw [12 x %struct.anon.0], ptr @mechtable, i64 0, i64 %53
  %55 = getelementptr inbounds nuw %struct.anon.0, ptr %54, i32 0, i32 1
  %56 = load i64, ptr %55, align 8, !tbaa !20
  %57 = icmp eq i64 %51, %56
  br i1 %57, label %58, label %64

58:                                               ; preds = %50
  %59 = load i32, ptr %8, align 4, !tbaa !16
  %60 = zext i32 %59 to i64
  %61 = getelementptr inbounds nuw [12 x %struct.anon.0], ptr @mechtable, i64 0, i64 %60
  %62 = getelementptr inbounds nuw %struct.anon.0, ptr %61, i32 0, i32 2
  %63 = load i16, ptr %62, align 8, !tbaa !21
  store i16 %63, ptr %4, align 2
  store i32 1, ptr %10, align 4
  br label %108

64:                                               ; preds = %50
  %65 = load ptr, ptr %5, align 8, !tbaa !10
  %66 = load i32, ptr %8, align 4, !tbaa !16
  %67 = zext i32 %66 to i64
  %68 = getelementptr inbounds nuw [12 x %struct.anon.0], ptr @mechtable, i64 0, i64 %67
  %69 = getelementptr inbounds nuw %struct.anon.0, ptr %68, i32 0, i32 1
  %70 = load i64, ptr %69, align 8, !tbaa !20
  %71 = getelementptr inbounds nuw i8, ptr %65, i64 %70
  %72 = load i8, ptr %71, align 1, !tbaa !22
  store i8 %72, ptr %9, align 1, !tbaa !22
  %73 = load i8, ptr %9, align 1, !tbaa !22
  %74 = sext i8 %73 to i32
  %75 = icmp sge i32 %74, 65
  br i1 %75, label %76, label %80

76:                                               ; preds = %64
  %77 = load i8, ptr %9, align 1, !tbaa !22
  %78 = sext i8 %77 to i32
  %79 = icmp sle i32 %78, 90
  br i1 %79, label %102, label %80

80:                                               ; preds = %76, %64
  %81 = load i8, ptr %9, align 1, !tbaa !22
  %82 = sext i8 %81 to i32
  %83 = icmp sge i32 %82, 48
  br i1 %83, label %84, label %88

84:                                               ; preds = %80
  %85 = load i8, ptr %9, align 1, !tbaa !22
  %86 = sext i8 %85 to i32
  %87 = icmp sle i32 %86, 57
  br i1 %87, label %102, label %88

88:                                               ; preds = %84, %80
  %89 = load i8, ptr %9, align 1, !tbaa !22
  %90 = sext i8 %89 to i32
  %91 = icmp ne i32 %90, 45
  br i1 %91, label %92, label %102

92:                                               ; preds = %88
  %93 = load i8, ptr %9, align 1, !tbaa !22
  %94 = sext i8 %93 to i32
  %95 = icmp ne i32 %94, 95
  br i1 %95, label %96, label %102

96:                                               ; preds = %92
  %97 = load i32, ptr %8, align 4, !tbaa !16
  %98 = zext i32 %97 to i64
  %99 = getelementptr inbounds nuw [12 x %struct.anon.0], ptr @mechtable, i64 0, i64 %98
  %100 = getelementptr inbounds nuw %struct.anon.0, ptr %99, i32 0, i32 2
  %101 = load i16, ptr %100, align 8, !tbaa !21
  store i16 %101, ptr %4, align 2
  store i32 1, ptr %10, align 4
  br label %108

102:                                              ; preds = %92, %88, %84, %76
  br label %103

103:                                              ; preds = %102, %26, %18
  br label %104

104:                                              ; preds = %103
  %105 = load i32, ptr %8, align 4, !tbaa !16
  %106 = add i32 %105, 1
  store i32 %106, ptr %8, align 4, !tbaa !16
  br label %11, !llvm.loop !23

107:                                              ; preds = %11
  store i16 0, ptr %4, align 2
  store i32 1, ptr %10, align 4
  br label %108

108:                                              ; preds = %107, %96, %58
  call void @llvm.lifetime.end.p0(i64 1, ptr %9) #4
  call void @llvm.lifetime.end.p0(i64 4, ptr %8) #4
  %109 = load i16, ptr %4, align 2
  ret i16 %109
}

; Function Attrs: nounwind uwtable
define hidden i32 @Curl_sasl_parse_url_auth_option(ptr noundef %0, ptr noundef %1, i64 noundef %2) #0 {
  %4 = alloca i32, align 4
  %5 = alloca ptr, align 8
  %6 = alloca ptr, align 8
  %7 = alloca i64, align 8
  %8 = alloca i32, align 4
  %9 = alloca i64, align 8
  %10 = alloca i32, align 4
  %11 = alloca i16, align 2
  store ptr %0, ptr %5, align 8, !tbaa !25
  store ptr %1, ptr %6, align 8, !tbaa !10
  store i64 %2, ptr %7, align 8, !tbaa !12
  call void @llvm.lifetime.start.p0(i64 4, ptr %8) #4
  store i32 0, ptr %8, align 4, !tbaa !16
  call void @llvm.lifetime.start.p0(i64 8, ptr %9) #4
  %12 = load i64, ptr %7, align 8, !tbaa !12
  %13 = icmp ne i64 %12, 0
  br i1 %13, label %15, label %14

14:                                               ; preds = %3
  store i32 3, ptr %4, align 4
  store i32 1, ptr %10, align 4
  br label %62

15:                                               ; preds = %3
  %16 = load ptr, ptr %5, align 8, !tbaa !25
  %17 = getelementptr inbounds nuw %struct.SASL, ptr %16, i32 0, i32 6
  %18 = load i8, ptr %17, align 2
  %19 = and i8 %18, 1
  %20 = zext i8 %19 to i32
  %21 = icmp ne i32 %20, 0
  br i1 %21, label %22, label %30

22:                                               ; preds = %15
  %23 = load ptr, ptr %5, align 8, !tbaa !25
  %24 = getelementptr inbounds nuw %struct.SASL, ptr %23, i32 0, i32 6
  %25 = load i8, ptr %24, align 2
  %26 = and i8 %25, -2
  %27 = or i8 %26, 0
  store i8 %27, ptr %24, align 2
  %28 = load ptr, ptr %5, align 8, !tbaa !25
  %29 = getelementptr inbounds nuw %struct.SASL, ptr %28, i32 0, i32 4
  store i16 0, ptr %29, align 2, !tbaa !27
  br label %30

30:                                               ; preds = %22, %15
  %31 = load ptr, ptr %6, align 8, !tbaa !10
  %32 = load i64, ptr %7, align 8, !tbaa !12
  %33 = call i32 @strncmp(ptr noundef %31, ptr noundef @.str, i64 noundef %32) #5
  %34 = icmp ne i32 %33, 0
  br i1 %34, label %38, label %35

35:                                               ; preds = %30
  %36 = load ptr, ptr %5, align 8, !tbaa !25
  %37 = getelementptr inbounds nuw %struct.SASL, ptr %36, i32 0, i32 4
  store i16 -33, ptr %37, align 2, !tbaa !27
  br label %60

38:                                               ; preds = %30
  call void @llvm.lifetime.start.p0(i64 2, ptr %11) #4
  %39 = load ptr, ptr %6, align 8, !tbaa !10
  %40 = load i64, ptr %7, align 8, !tbaa !12
  %41 = call zeroext i16 @Curl_sasl_decode_mech(ptr noundef %39, i64 noundef %40, ptr noundef %9)
  store i16 %41, ptr %11, align 2, !tbaa !8
  %42 = load i16, ptr %11, align 2, !tbaa !8
  %43 = zext i16 %42 to i32
  %44 = icmp ne i32 %43, 0
  br i1 %44, label %45, label %58

45:                                               ; preds = %38
  %46 = load i64, ptr %9, align 8, !tbaa !12
  %47 = load i64, ptr %7, align 8, !tbaa !12
  %48 = icmp eq i64 %46, %47
  br i1 %48, label %49, label %58

49:                                               ; preds = %45
  %50 = load i16, ptr %11, align 2, !tbaa !8
  %51 = zext i16 %50 to i32
  %52 = load ptr, ptr %5, align 8, !tbaa !25
  %53 = getelementptr inbounds nuw %struct.SASL, ptr %52, i32 0, i32 4
  %54 = load i16, ptr %53, align 2, !tbaa !27
  %55 = zext i16 %54 to i32
  %56 = or i32 %55, %51
  %57 = trunc i32 %56 to i16
  store i16 %57, ptr %53, align 2, !tbaa !27
  br label %59

58:                                               ; preds = %45, %38
  store i32 3, ptr %8, align 4, !tbaa !16
  br label %59

59:                                               ; preds = %58, %49
  call void @llvm.lifetime.end.p0(i64 2, ptr %11) #4
  br label %60

60:                                               ; preds = %59, %35
  %61 = load i32, ptr %8, align 4, !tbaa !16
  store i32 %61, ptr %4, align 4
  store i32 1, ptr %10, align 4
  br label %62

62:                                               ; preds = %60, %14
  call void @llvm.lifetime.end.p0(i64 8, ptr %9) #4
  call void @llvm.lifetime.end.p0(i64 4, ptr %8) #4
  %63 = load i32, ptr %4, align 4
  ret i32 %63
}