; Function Attrs: nofree nounwind memory(read, argmem: readwrite, inaccessiblemem: none) uwtable
define hidden range(i32 0, 4) i32 @Curl_sasl_parse_url_auth_option(ptr noundef captures(none) %0, ptr noundef readonly captures(none) %1, i64 noundef %2) local_unnamed_addr #2 {
  %.not = icmp eq i64 %2, 0
  br i1 %.not, label %Curl_sasl_decode_mech.exit.thread, label %4

4:                                                ; preds = %3
  %5 = getelementptr inbounds nuw i8, ptr %0, i64 30
  %6 = load i8, ptr %5, align 2
  %7 = and i8 %6, 1
  %.not17 = icmp eq i8 %7, 0
  br i1 %.not17, label %11, label %8

8:                                                ; preds = %4
  %9 = and i8 %6, -2
  store i8 %9, ptr %5, align 2
  %10 = getelementptr inbounds nuw i8, ptr %0, i64 26
  store i16 0, ptr %10, align 2, !tbaa !17
  br label %11

11:                                               ; preds = %8, %4
  %12 = tail call i32 @strncmp(ptr noundef %1, ptr noundef nonnull @.str, i64 noundef %2) #9
  %.not18 = icmp eq i32 %12, 0
  br i1 %.not18, label %13, label %.split.i

13:                                               ; preds = %11
  %14 = getelementptr inbounds nuw i8, ptr %0, i64 26
  store i16 -33, ptr %14, align 2, !tbaa !17
  br label %Curl_sasl_decode_mech.exit.thread

.split.i:                                         ; preds = %11, %27
  %indvars.iv.i = phi i64 [ %indvars.iv.next.i, %27 ], [ 0, %11 ]
  %15 = phi ptr [ %29, %27 ], [ @.str.8, %11 ]
  %16 = phi ptr [ %28, %27 ], [ @mechtable, %11 ]
  %17 = getelementptr inbounds nuw i8, ptr %16, i64 8
  %18 = load i64, ptr %17, align 8, !tbaa !3
  %.not39.i = icmp ult i64 %2, %18
  br i1 %.not39.i, label %27, label %19

19:                                               ; preds = %.split.i
  %bcmp.i = tail call i32 @bcmp(ptr readonly %1, ptr nonnull %15, i64 %18)
  %.not40.i = icmp eq i32 %bcmp.i, 0
  br i1 %.not40.i, label %20, label %27

20:                                               ; preds = %19
  %21 = icmp eq i64 %2, %18
  br i1 %21, label %Curl_sasl_decode_mech.exit, label %22

22:                                               ; preds = %20
  %23 = getelementptr inbounds nuw i8, ptr %1, i64 %18
  %24 = load i8, ptr %23, align 1, !tbaa !11
  %.fr42.i = freeze i8 %24
  %25 = add i8 %.fr42.i, -91
  %or.cond.i = icmp ult i8 %25, -26
  %26 = add i8 %.fr42.i, -58
  %or.cond5.i = icmp ult i8 %26, -10
  %or.cond43.i = and i1 %or.cond.i, %or.cond5.i
  br i1 %or.cond43.i, label %switch.early.test.i, label %27

switch.early.test.i:                              ; preds = %22
  switch i8 %.fr42.i, label %Curl_sasl_decode_mech.exit [
    i8 95, label %27
    i8 45, label %27
  ]

27:                                               ; preds = %switch.early.test.i, %switch.early.test.i, %22, %19, %.split.i
  %indvars.iv.next.i = add nuw nsw i64 %indvars.iv.i, 1
  %28 = getelementptr inbounds nuw [12 x %struct.anon.0], ptr @mechtable, i64 0, i64 %indvars.iv.next.i
  %29 = load ptr, ptr %28, align 8, !tbaa !12
  %exitcond.i = icmp eq i64 %indvars.iv.next.i, 11
  br i1 %exitcond.i, label %Curl_sasl_decode_mech.exit.thread, label %.split.i, !llvm.loop !13

Curl_sasl_decode_mech.exit:                       ; preds = %20, %switch.early.test.i
  %.lcssa = phi i64 [ %2, %20 ], [ %18, %switch.early.test.i ]
  %30 = getelementptr inbounds nuw i8, ptr %16, i64 16
  %31 = load i16, ptr %30, align 8, !tbaa !16
  %.not19 = icmp ne i16 %31, 0
  %32 = icmp eq i64 %.lcssa, %2
  %or.cond = and i1 %32, %.not19
  br i1 %or.cond, label %33, label %Curl_sasl_decode_mech.exit.thread

33:                                               ; preds = %Curl_sasl_decode_mech.exit
  %34 = getelementptr inbounds nuw i8, ptr %0, i64 26
  %35 = load i16, ptr %34, align 2, !tbaa !17
  %36 = or i16 %35, %31
  store i16 %36, ptr %34, align 2, !tbaa !17
  br label %Curl_sasl_decode_mech.exit.thread

Curl_sasl_decode_mech.exit.thread:                ; preds = %27, %13, %Curl_sasl_decode_mech.exit, %33, %3
  %.0 = phi i32 [ 3, %3 ], [ 0, %13 ], [ 0, %33 ], [ 3, %Curl_sasl_decode_mech.exit ], [ 3, %27 ]
  ret i32 %.0
}